Certificate:
    Data:
        Version: 1 (0x0)
        Serial Number: 1 (0x1)
    Signature Algorithm: md5WithRSAEncryption
        Issuer: O=My Organization/emailAddress=foo@foo.us, L=BOGOR, ST=FOO, C=ID, CN=localhost
        Validity
            Not Before: Aug 30 12:45:10 2013 GMT
            Not After : Aug 30 12:45:10 2014 GMT
        Subject: C=ID, ST=FOO, O=My Organization, CN=localhost
        Subject Public Key Info:
            Public Key Algorithm: rsaEncryption
                Public-Key: (2048 bit)
                Modulus:
                    00:a0:e6:e3:32:c7:5e:b1:e2:b5:51:a2:23:09:93:
                    42:95:cb:bd:94:ca:97:49:41:c0:68:86:7b:d5:81:
                    36:6e:9a:cb:5b:08:08:0f:12:f0:b1:3a:52:b2:45:
                    30:25:cc:8f:92:5b:58:c7:73:bb:d9:75:0c:8d:f6:
                    0c:72:94:09:e6:f8:43:de:05:9e:c5:c2:a9:ee:00:
                    e5:3b:cb:d7:8a:18:0f:74:1e:5b:7e:e3:82:8d:fb:
                    62:29:81:15:70:95:7b:69:d5:f0:15:0a:2d:de:a1:
                    31:c3:15:e1:39:ce:1b:38:32:fb:3b:5d:11:3e:a3:
                    7c:b7:b6:4c:6e:1e:4c:a9:58:88:43:62:04:63:91:
                    5c:a4:db:ce:b5:f3:9a:87:64:52:2e:01:72:68:fb:
                    6a:96:06:7a:de:77:27:35:d6:97:b6:37:01:80:e3:
                    7a:e3:4f:18:9a:56:12:45:df:fc:a8:f6:c7:1c:49:
                    00:17:b6:bf:36:ce:bb:51:05:24:5e:cb:d1:7d:e5:
                    16:c9:2a:18:95:f1:90:5b:be:95:cf:7c:b9:31:bd:
                    2e:4c:c6:26:fb:71:23:5d:61:d0:43:d4:72:40:8e:
                    52:04:cb:05:da:c8:9d:22:f6:85:09:cc:2e:38:64:
                    48:1b:1a:62:0d:b1:9b:08:35:26:72:9b:6c:71:32:
                    73:75
                Exponent: 65537 (0x10001)
    Signature Algorithm: md5WithRSAEncryption
         8d:b4:3a:55:7d:27:0c:31:6a:dc:03:40:15:a1:80:61:dc:e6:
         c8:28:a8:90:43:cb:18:ba:22:48:44:5d:73:12:8f:62:42:49:
         2c:31:0a:54:8c:92:2d:db:61:64:48:2c:e2:17:82:62:3c:e0:
         ba:56:56:b7:e2:15:62:59:54:9c:ac:ed:ed:cc:a8:7d:41:4b:
         21:02:47:69:16:cc:7f:32:ed:06:aa:b2:6f:eb:da:d4:0b:16:
         af:6b:0b:c2:39:b0:96:97:44:21:0e:a2:50:dd:a5:c7:a7:da:
         d3:7b:f1:b2:a2:0c:81:9b:c2:33:52:5b:62:af:36:6a:9a:09:
         72:6e:b9:b6:ca:37:2a:ce:a7:8f:b2:b5:a9:9b:b3:7b:91:aa:
         e6:a7:69:1c:0b:9b:83:c4:f6:50:6b:dd:a0:ab:bf:e3:a4:70:
         e1:c7:a0:c2:fb:dd:ac:fa:b2:17:fd:71:f2:b7:e0:9e:21:1a:
         91:ba:92:52:fc:f7:5f:4e:47:b1:da:33:b4:f3:d2:42:22:5a:
         c5:10:cd:13:e4:aa:18:fb:11:1b:87:06:d5:a0:70:91:76:ed:
         e4:16:fc:fd:e3:e3:70:04:17:8a:a4:7f:f3:be:d6:ba:5c:eb:
         52:42:ac:83:a8:d3:6f:17:17:ff:93:e6:69:be:dd:82:ff:68:
         a6:99:de:17
-----BEGIN CERTIFICATE-----
MIIDMTCCAhkCAQEwDQYJKoZIhvcNAQEEBQAwdDEYMBYGA1UEChMPTXkgT3JnYW5p
emF0aW9uMRkwFwYJKoZIhvcNAQkBFgpmb29AZm9vLnVzMQ4wDAYDVQQHEwVCT0dP
UjEMMAoGA1UECBMDRk9PMQswCQYDVQQGEwJJRDESMBAGA1UEAxMJbG9jYWxob3N0
MB4XDTEzMDgzMDEyNDUxMFoXDTE0MDgzMDEyNDUxMFowSTELMAkGA1UEBhMCSUQx
DDAKBgNVBAgTA0ZPTzEYMBYGA1UEChMPTXkgT3JnYW5pemF0aW9uMRIwEAYDVQQD
Ewlsb2NhbGhvc3QwggEiMA0GCSqGSIb3DQEBAQUAA4IBDwAwggEKAoIBAQCg5uMy
x16x4rVRoiMJk0KVy72UypdJQcBohnvVgTZumstbCAgPEvCxOlKyRTAlzI+SW1jH
c7vZdQyN9gxylAnm+EPeBZ7FwqnuAOU7y9eKGA90Hlt+44KN+2IpgRVwlXtp1fAV
Ci3eoTHDFeE5zhs4Mvs7XRE+o3y3tkxuHkypWIhDYgRjkVyk286185qHZFIuAXJo
+2qWBnredyc11pe2NwGA43rjTxiaVhJF3/yo9sccSQAXtr82zrtRBSRey9F95RbJ
KhiV8ZBbvpXPfLkxvS5Mxib7cSNdYdBD1HJAjlIEywXayJ0i9oUJzC44ZEgbGmIN
sZsINSZym2xxMnN1AgMBAAEwDQYJKoZIhvcNAQEEBQADggEBAI20OlV9JwwxatwD
QBWhgGHc5sgoqJBDyxi6IkhEXXMSj2JCSSwxClSMki3bYWRILOIXgmI84LpWVrfi
FWJZVJys7e3MqH1BSyECR2kWzH8y7Qaqsm/r2tQLFq9rC8I5sJaXRCEOolDdpcen
2tN78bKiDIGbwjNSW2KvNmqaCXJuubbKNyrOp4+ytambs3uRquanaRwLm4PE9lBr
3aCrv+OkcOHHoML73az6shf9cfK34J4hGpG6klL8919OR7HaM7Tz0kIiWsUQzRPk
qhj7ERuHBtWgcJF27eQW/P3j43AEF4qkf/O+1rpc61JCrIOo028XF/+T5mm+3YL/
aKaZ3hc=
-----END CERTIFICATE-----
