Certificate:
    Data:
        Version: 1 (0x0)
        Serial Number: 2 (0x2)
    Signature Algorithm: md5WithRSAEncryption
        Issuer: O=My Organization/emailAddress=foo@foo.us, L=BOGOR, ST=FOO, C=ID, CN=localhost
        Validity
            Not Before: Aug 30 12:46:07 2013 GMT
            Not After : Aug 30 12:46:07 2014 GMT
        Subject: C=ID, ST=FOO, O=My Organization, CN=localhost
        Subject Public Key Info:
            Public Key Algorithm: rsaEncryption
                Public-Key: (2048 bit)
                Modulus:
                    00:c7:be:d9:6d:83:81:b5:c0:cd:fe:80:15:a2:9a:
                    6d:eb:57:c0:83:c9:c4:4e:bc:c1:a7:a1:96:63:a6:
                    e5:07:20:90:c9:4b:d3:b3:e0:7a:93:c7:09:57:f6:
                    0b:ea:13:4e:ed:9a:7e:0d:d7:57:eb:34:d3:90:ff:
                    5a:d7:ad:e0:17:1f:74:55:70:3e:d4:0f:50:ca:ce:
                    e5:4f:92:b6:e4:07:61:24:db:1a:5c:19:50:3a:2f:
                    b8:73:00:85:64:8b:ba:c4:65:2a:77:1b:fc:5b:fb:
                    cd:a6:98:06:8e:a5:8a:2a:2b:fd:f5:c1:c4:7c:6c:
                    e2:f1:7c:2d:08:6b:14:8a:dc:b6:c6:30:d9:06:f2:
                    cc:c7:62:90:ee:5a:c6:e4:30:9e:78:98:62:e9:e9:
                    a8:8d:71:6a:12:c7:2e:44:5b:21:a6:d7:9b:ff:ab:
                    80:3a:ca:4f:7c:8e:ca:e5:fa:57:c0:ad:2f:e7:ce:
                    93:7f:36:3e:4c:81:2f:c1:ed:67:03:98:a3:8b:a9:
                    6f:f0:90:6a:08:93:af:4a:a3:b1:21:05:72:7f:fd:
                    cf:7c:e2:0b:3d:4e:62:6d:3f:fb:66:3e:12:15:1d:
                    40:f6:0a:eb:af:5c:a6:95:e4:e2:25:db:d2:96:67:
                    1b:1d:8a:26:18:e4:de:c3:35:03:77:c6:00:a6:51:
                    ea:bf
                Exponent: 65537 (0x10001)
    Signature Algorithm: md5WithRSAEncryption
         06:11:ec:e8:06:cb:ff:f9:6d:c2:0e:bf:33:cd:2f:b3:a3:3f:
         11:87:1d:8f:d0:6c:d6:dc:34:61:ff:6f:4a:b9:56:81:33:ee:
         bd:42:be:63:ea:65:2d:b3:91:6e:3e:0a:3f:9a:59:06:57:05:
         c0:e5:e7:be:71:af:a1:46:a4:e9:30:63:db:ae:92:9b:22:a6:
         96:95:5b:48:62:c3:83:d5:8b:a9:6b:be:33:cd:cd:e4:63:b4:
         0a:35:6c:0c:be:cf:c3:3e:06:e9:9a:52:8d:95:b7:22:d6:5e:
         b3:28:44:f7:50:73:4c:bc:e9:5e:e0:7f:d8:37:d1:9a:69:27:
         d8:ac:53:2d:23:b9:14:08:9a:33:fb:9e:02:f7:61:18:00:ec:
         b5:c5:ec:4e:f8:4d:a1:84:d1:e3:b2:e9:9e:67:6f:ac:bc:50:
         f7:b8:ff:97:a9:41:16:9d:87:f9:bd:dd:f0:19:a0:c7:9d:99:
         ff:13:24:8e:70:1a:02:0b:68:5b:b8:b7:fb:b3:d8:fb:49:f9:
         74:39:19:83:72:6b:e9:85:8f:e4:f9:af:33:d7:61:98:21:00:
         65:fc:eb:9e:ba:7d:c1:f2:1a:c5:cf:59:64:d8:3f:75:a1:5d:
         82:1f:7c:6e:ac:85:d1:5a:b9:3d:12:ab:be:2e:57:09:7a:32:
         f7:98:40:a4
-----BEGIN CERTIFICATE-----
MIIDMTCCAhkCAQIwDQYJKoZIhvcNAQEEBQAwdDEYMBYGA1UEChMPTXkgT3JnYW5p
emF0aW9uMRkwFwYJKoZIhvcNAQkBFgpmb29AZm9vLnVzMQ4wDAYDVQQHEwVCT0dP
UjEMMAoGA1UECBMDRk9PMQswCQYDVQQGEwJJRDESMBAGA1UEAxMJbG9jYWxob3N0
MB4XDTEzMDgzMDEyNDYwN1oXDTE0MDgzMDEyNDYwN1owSTELMAkGA1UEBhMCSUQx
DDAKBgNVBAgTA0ZPTzEYMBYGA1UEChMPTXkgT3JnYW5pemF0aW9uMRIwEAYDVQQD
Ewlsb2NhbGhvc3QwggEiMA0GCSqGSIb3DQEBAQUAA4IBDwAwggEKAoIBAQDHvtlt
g4G1wM3+gBWimm3rV8CDycROvMGnoZZjpuUHIJDJS9Oz4HqTxwlX9gvqE07tmn4N
11frNNOQ/1rXreAXH3RVcD7UD1DKzuVPkrbkB2Ek2xpcGVA6L7hzAIVki7rEZSp3
G/xb+82mmAaOpYoqK/31wcR8bOLxfC0IaxSK3LbGMNkG8szHYpDuWsbkMJ54mGLp
6aiNcWoSxy5EWyGm15v/q4A6yk98jsrl+lfArS/nzpN/Nj5MgS/B7WcDmKOLqW/w
kGoIk69Ko7EhBXJ//c984gs9TmJtP/tmPhIVHUD2CuuvXKaV5OIl29KWZxsdiiYY
5N7DNQN3xgCmUeq/AgMBAAEwDQYJKoZIhvcNAQEEBQADggEBAAYR7OgGy//5bcIO
vzPNL7OjPxGHHY/QbNbcNGH/b0q5VoEz7r1CvmPqZS2zkW4+Cj+aWQZXBcDl575x
r6FGpOkwY9uukpsippaVW0hiw4PVi6lrvjPNzeRjtAo1bAy+z8M+BumaUo2VtyLW
XrMoRPdQc0y86V7gf9g30ZppJ9isUy0juRQImjP7ngL3YRgA7LXF7E74TaGE0eOy
6Z5nb6y8UPe4/5epQRadh/m93fAZoMedmf8TJI5wGgILaFu4t/uz2PtJ+XQ5GYNy
a+mFj+T5rzPXYZghAGX86566fcHyGsXPWWTYP3WhXYIffG6shdFauT0Sq74uVwl6
MveYQKQ=
-----END CERTIFICATE-----
